Archive member included because of file (symbol)

/usr/lib/gcc/avr/4.8.1/avr4/libgcc.a(_exit.o)
                              /usr/lib/gcc/avr/4.8.1/../../../avr/lib/avr4/crtm8.o (exit)
/usr/lib/gcc/avr/4.8.1/avr4/libgcc.a(_copy_data.o)
                              ./usbdrv.o (__do_copy_data)
/usr/lib/gcc/avr/4.8.1/avr4/libgcc.a(_clear_bss.o)
                              ./usbdrv.o (__do_clear_bss)
/usr/lib/gcc/avr/4.8.1/../../../avr/lib/avr4/libm.a(divsf3.o)
                              ./main.o (__divsf3)
/usr/lib/gcc/avr/4.8.1/../../../avr/lib/avr4/libm.a(divsf3x.o)
                              /usr/lib/gcc/avr/4.8.1/../../../avr/lib/avr4/libm.a(divsf3.o) (__divsf3x)
/usr/lib/gcc/avr/4.8.1/../../../avr/lib/avr4/libm.a(fixsfsi.o)
                              ./main.o (__fixsfsi)
/usr/lib/gcc/avr/4.8.1/../../../avr/lib/avr4/libm.a(fixunssfsi.o)
                              /usr/lib/gcc/avr/4.8.1/../../../avr/lib/avr4/libm.a(fixsfsi.o) (__fixunssfsi)
/usr/lib/gcc/avr/4.8.1/../../../avr/lib/avr4/libm.a(floatsisf.o)
                              ./main.o (__floatsisf)
/usr/lib/gcc/avr/4.8.1/../../../avr/lib/avr4/libm.a(fp_inf.o)
                              /usr/lib/gcc/avr/4.8.1/../../../avr/lib/avr4/libm.a(divsf3x.o) (__fp_inf)
/usr/lib/gcc/avr/4.8.1/../../../avr/lib/avr4/libm.a(fp_nan.o)
                              /usr/lib/gcc/avr/4.8.1/../../../avr/lib/avr4/libm.a(divsf3x.o) (__fp_nan)
/usr/lib/gcc/avr/4.8.1/../../../avr/lib/avr4/libm.a(fp_pscA.o)
                              /usr/lib/gcc/avr/4.8.1/../../../avr/lib/avr4/libm.a(divsf3x.o) (__fp_pscA)
/usr/lib/gcc/avr/4.8.1/../../../avr/lib/avr4/libm.a(fp_pscB.o)
                              /usr/lib/gcc/avr/4.8.1/../../../avr/lib/avr4/libm.a(divsf3x.o) (__fp_pscB)
/usr/lib/gcc/avr/4.8.1/../../../avr/lib/avr4/libm.a(fp_round.o)
                              /usr/lib/gcc/avr/4.8.1/../../../avr/lib/avr4/libm.a(divsf3.o) (__fp_round)
/usr/lib/gcc/avr/4.8.1/../../../avr/lib/avr4/libm.a(fp_split3.o)
                              /usr/lib/gcc/avr/4.8.1/../../../avr/lib/avr4/libm.a(divsf3x.o) (__fp_split3)
/usr/lib/gcc/avr/4.8.1/../../../avr/lib/avr4/libm.a(fp_zero.o)
                              /usr/lib/gcc/avr/4.8.1/../../../avr/lib/avr4/libm.a(fixunssfsi.o) (__fp_zero)
/usr/lib/gcc/avr/4.8.1/../../../avr/lib/avr4/libm.a(round.o)
                              ./main.o (round)
/usr/lib/gcc/avr/4.8.1/../../../avr/lib/avr4/libm.a(fp_mintl.o)
                              /usr/lib/gcc/avr/4.8.1/../../../avr/lib/avr4/libm.a(round.o) (__fp_mintl)
/usr/lib/gcc/avr/4.8.1/../../../avr/lib/avr4/libm.a(fp_mpack.o)
                              /usr/lib/gcc/avr/4.8.1/../../../avr/lib/avr4/libm.a(round.o) (__fp_mpack)
/usr/lib/gcc/avr/4.8.1/../../../avr/lib/avr4/libc.a(itoa_ncheck.o)
                              ./main.o (__itoa_ncheck)
/usr/lib/gcc/avr/4.8.1/../../../avr/lib/avr4/libc.a(utoa_ncheck.o)
                              /usr/lib/gcc/avr/4.8.1/../../../avr/lib/avr4/libc.a(itoa_ncheck.o) (__utoa_common)
/usr/lib/gcc/avr/4.8.1/../../../avr/lib/avr4/libc.a(eerd_word_atmega8.o)
                              ./main.o (__eerd_word_m8)
/usr/lib/gcc/avr/4.8.1/../../../avr/lib/avr4/libc.a(eewr_word_atmega8.o)
                              ./main.o (__eewr_word_m8)
/usr/lib/gcc/avr/4.8.1/../../../avr/lib/avr4/libc.a(strrev.o)
                              /usr/lib/gcc/avr/4.8.1/../../../avr/lib/avr4/libc.a(utoa_ncheck.o) (strrev)
/usr/lib/gcc/avr/4.8.1/../../../avr/lib/avr4/libc.a(eerd_block_atmega8.o)
                              /usr/lib/gcc/avr/4.8.1/../../../avr/lib/avr4/libc.a(eerd_word_atmega8.o) (__eerd_blraw_m8)
/usr/lib/gcc/avr/4.8.1/../../../avr/lib/avr4/libc.a(eewr_byte_atmega8.o)
                              /usr/lib/gcc/avr/4.8.1/../../../avr/lib/avr4/libc.a(eewr_word_atmega8.o) (__eewr_byte_m8)

Allocating common symbols
Common symbol       size              file

usbTxBuf            0xb               ./usbdrv.o
def_impulse_count   0x2               ./main.o
usbDeviceAddr       0x1               ./usbdrv.o
usbRxToken          0x1               ./usbdrv.o
usbInputBufOffset   0x1               ./usbdrv.o
def_mode            0x2               ./main.o
def_pause_duration  0x2               ./main.o
usbMsgPtr           0x2               ./usbdrv.o
usbRxLen            0x1               ./usbdrv.o
usbNewDeviceAddr    0x1               ./usbdrv.o
def_pulse_duration  0x2               ./main.o
usbCurrentTok       0x1               ./usbdrv.o
usbConfiguration    0x1               ./usbdrv.o
usbRxBuf            0x16              ./usbdrv.o

Memory Configuration

Name             Origin             Length             Attributes
text             0x00000000         0x00002000         xr
data             0x00800060         0x0000ffa0         rw !x
eeprom           0x00810000         0x00010000         rw !x
fuse             0x00820000         0x00000400         rw !x
lock             0x00830000         0x00000400         rw !x
signature        0x00840000         0x00000400         rw !x
user_signatures  0x00850000         0x00000400         rw !x
*default*        0x00000000         0xffffffff

Linker script and memory map

LOAD /usr/lib/gcc/avr/4.8.1/../../../avr/lib/avr4/crtm8.o
LOAD ./usbdrv.o
LOAD ./usbdrvasm.o
LOAD ./oddebug.o
LOAD ./main.o
START GROUP
LOAD /usr/lib/gcc/avr/4.8.1/avr4/libgcc.a
LOAD /usr/lib/gcc/avr/4.8.1/../../../avr/lib/avr4/libm.a
LOAD /usr/lib/gcc/avr/4.8.1/../../../avr/lib/avr4/libc.a
END GROUP

.hash
 *(.hash)

.dynsym
 *(.dynsym)

.dynstr
 *(.dynstr)

.gnu.version
 *(.gnu.version)

.gnu.version_d
 *(.gnu.version_d)

.gnu.version_r
 *(.gnu.version_r)

.rel.init
 *(.rel.init)

.rela.init
 *(.rela.init)

.rel.text
 *(.rel.text)
 *(.rel.text.*)
 *(.rel.gnu.linkonce.t*)

.rela.text
 *(.rela.text)
 *(.rela.text.*)
 *(.rela.gnu.linkonce.t*)

.rel.fini
 *(.rel.fini)

.rela.fini
 *(.rela.fini)

.rel.rodata
 *(.rel.rodata)
 *(.rel.rodata.*)
 *(.rel.gnu.linkonce.r*)

.rela.rodata
 *(.rela.rodata)
 *(.rela.rodata.*)
 *(.rela.gnu.linkonce.r*)

.rel.data
 *(.rel.data)
 *(.rel.data.*)
 *(.rel.gnu.linkonce.d*)

.rela.data
 *(.rela.data)
 *(.rela.data.*)
 *(.rela.gnu.linkonce.d*)

.rel.ctors
 *(.rel.ctors)

.rela.ctors
 *(.rela.ctors)

.rel.dtors
 *(.rel.dtors)

.rela.dtors
 *(.rela.dtors)

.rel.got
 *(.rel.got)

.rela.got
 *(.rela.got)

.rel.bss
 *(.rel.bss)

.rela.bss
 *(.rela.bss)

.rel.plt
 *(.rel.plt)

.rela.plt
 *(.rela.plt)

.text           0x00000000     0x13ee
 *(.vectors)
 .vectors       0x00000000       0x26 /usr/lib/gcc/avr/4.8.1/../../../avr/lib/avr4/crtm8.o
                0x00000000                __vectors
                0x00000000                __vector_default
 *(.vectors)
 *(.progmem.gcc*)
 .progmem.gcc_sw_table.main
                0x00000026        0xe ./main.o
                0x00000034                . = ALIGN (0x2)
                0x00000034                __trampolines_start = .
 *(.trampolines)
 .trampolines   0x00000034        0x0 linker stubs
 *(.trampolines*)
                0x00000034                __trampolines_end = .
 *(.progmem*)
 .progmem.data  0x00000034       0x5a ./usbdrv.o
                0x00000034                usbDescriptorConfiguration
                0x00000046                usbDescriptorDevice
                0x00000058                usbDescriptorStringDevice
                0x0000006a                usbDescriptorStringVendor
                0x0000008a                usbDescriptorString0
                0x0000008e                . = ALIGN (0x2)
 *(.jumptables)
 *(.jumptables*)
 *(.lowtext)
 *(.lowtext*)
                0x0000008e                __ctors_start = .
 *(.ctors)
                0x0000008e                __ctors_end = .
                0x0000008e                __dtors_start = .
 *(.dtors)
                0x0000008e                __dtors_end = .
 SORT(*)(.ctors)
 SORT(*)(.dtors)
 *(.init0)
 .init0         0x0000008e        0x0 /usr/lib/gcc/avr/4.8.1/../../../avr/lib/avr4/crtm8.o
                0x0000008e                __init
 *(.init0)
 *(.init1)
 *(.init1)
 *(.init2)
 .init2         0x0000008e        0xc /usr/lib/gcc/avr/4.8.1/../../../avr/lib/avr4/crtm8.o
 *(.init2)
 *(.init3)
 *(.init3)
 *(.init4)
 .init4         0x0000009a       0x16 /usr/lib/gcc/avr/4.8.1/avr4/libgcc.a(_copy_data.o)
                0x0000009a                __do_copy_data
 .init4         0x000000b0       0x10 /usr/lib/gcc/avr/4.8.1/avr4/libgcc.a(_clear_bss.o)
                0x000000b0                __do_clear_bss
 *(.init4)
 *(.init5)
 *(.init5)
 *(.init6)
 *(.init6)
 *(.init7)
 *(.init7)
 *(.init8)
 *(.init8)
 *(.init9)
 .init9         0x000000c0        0x4 /usr/lib/gcc/avr/4.8.1/../../../avr/lib/avr4/crtm8.o
 *(.init9)
 *(.text)
 .text          0x000000c4        0x2 /usr/lib/gcc/avr/4.8.1/../../../avr/lib/avr4/crtm8.o
                0x000000c4                __vector_12
                0x000000c4                __bad_interrupt
                0x000000c4                __vector_6
                0x000000c4                __vector_3
                0x000000c4                __vector_11
                0x000000c4                __vector_13
                0x000000c4                __vector_17
                0x000000c4                __vector_7
                0x000000c4                __vector_5
                0x000000c4                __vector_4
                0x000000c4                __vector_9
                0x000000c4                __vector_2
                0x000000c4                __vector_15
                0x000000c4                __vector_8
                0x000000c4                __vector_14
                0x000000c4                __vector_10
                0x000000c4                __vector_16
                0x000000c4                __vector_18
 .text          0x000000c6      0x1de ./usbdrv.o
                0x000000c6                usbPoll
                0x00000296                usbInit
 .text          0x000002a4      0x25a ./usbdrvasm.o
                0x000002a4                usbCrc16
                0x000002ce                usbCrc16Append
                0x000002d6                __vector_1
 .text          0x000004fe        0x0 ./oddebug.o
 .text          0x000004fe        0x0 ./main.o
 .text          0x000004fe        0x0 /usr/lib/gcc/avr/4.8.1/avr4/libgcc.a(_exit.o)
 .text          0x000004fe        0x0 /usr/lib/gcc/avr/4.8.1/avr4/libgcc.a(_copy_data.o)
 .text          0x000004fe        0x0 /usr/lib/gcc/avr/4.8.1/avr4/libgcc.a(_clear_bss.o)
 .text          0x000004fe        0x0 /usr/lib/gcc/avr/4.8.1/../../../avr/lib/avr4/libm.a(divsf3.o)
 .text          0x000004fe        0x0 /usr/lib/gcc/avr/4.8.1/../../../avr/lib/avr4/libm.a(divsf3x.o)
 .text          0x000004fe        0x0 /usr/lib/gcc/avr/4.8.1/../../../avr/lib/avr4/libm.a(fixsfsi.o)
 .text          0x000004fe        0x0 /usr/lib/gcc/avr/4.8.1/../../../avr/lib/avr4/libm.a(fixunssfsi.o)
 .text          0x000004fe        0x0 /usr/lib/gcc/avr/4.8.1/../../../avr/lib/avr4/libm.a(floatsisf.o)
 .text          0x000004fe        0x0 /usr/lib/gcc/avr/4.8.1/../../../avr/lib/avr4/libm.a(fp_inf.o)
 .text          0x000004fe        0x0 /usr/lib/gcc/avr/4.8.1/../../../avr/lib/avr4/libm.a(fp_nan.o)
 .text          0x000004fe        0x0 /usr/lib/gcc/avr/4.8.1/../../../avr/lib/avr4/libm.a(fp_pscA.o)
 .text          0x000004fe        0x0 /usr/lib/gcc/avr/4.8.1/../../../avr/lib/avr4/libm.a(fp_pscB.o)
 .text          0x000004fe        0x0 /usr/lib/gcc/avr/4.8.1/../../../avr/lib/avr4/libm.a(fp_round.o)
 .text          0x000004fe        0x0 /usr/lib/gcc/avr/4.8.1/../../../avr/lib/avr4/libm.a(fp_split3.o)
 .text          0x000004fe        0x0 /usr/lib/gcc/avr/4.8.1/../../../avr/lib/avr4/libm.a(fp_zero.o)
 .text          0x000004fe        0x0 /usr/lib/gcc/avr/4.8.1/../../../avr/lib/avr4/libm.a(round.o)
 .text          0x000004fe        0x0 /usr/lib/gcc/avr/4.8.1/../../../avr/lib/avr4/libm.a(fp_mintl.o)
 .text          0x000004fe        0x0 /usr/lib/gcc/avr/4.8.1/../../../avr/lib/avr4/libm.a(fp_mpack.o)
 .text          0x000004fe        0x0 /usr/lib/gcc/avr/4.8.1/../../../avr/lib/avr4/libc.a(itoa_ncheck.o)
 .text          0x000004fe        0x0 /usr/lib/gcc/avr/4.8.1/../../../avr/lib/avr4/libc.a(utoa_ncheck.o)
 .text          0x000004fe        0x0 /usr/lib/gcc/avr/4.8.1/../../../avr/lib/avr4/libc.a(eerd_word_atmega8.o)
 .text          0x000004fe        0x0 /usr/lib/gcc/avr/4.8.1/../../../avr/lib/avr4/libc.a(eewr_word_atmega8.o)
 .text          0x000004fe        0x0 /usr/lib/gcc/avr/4.8.1/../../../avr/lib/avr4/libc.a(strrev.o)
 .text          0x000004fe        0x0 /usr/lib/gcc/avr/4.8.1/../../../avr/lib/avr4/libc.a(eerd_block_atmega8.o)
 .text          0x000004fe        0x0 /usr/lib/gcc/avr/4.8.1/../../../avr/lib/avr4/libc.a(eewr_byte_atmega8.o)
                0x000004fe                . = ALIGN (0x2)
 *(.text.*)
 .text.setRelayState.part.2
                0x000004fe        0x4 ./main.o
 .text.readPulseDuration
                0x00000502        0x6 ./main.o
                0x00000502                readPulseDuration
 .text.writePulseDuration
                0x00000508        0x8 ./main.o
                0x00000508                writePulseDuration
 .text.readPauseDuration
                0x00000510        0x6 ./main.o
                0x00000510                readPauseDuration
 .text.writePauseDuration
                0x00000516        0x8 ./main.o
                0x00000516                writePauseDuration
 .text.readImpulseCount
                0x0000051e        0x6 ./main.o
                0x0000051e                readImpulseCount
 .text.writeImpulseCount
                0x00000524        0x8 ./main.o
                0x00000524                writeImpulseCount
 .text.readMode
                0x0000052c        0x6 ./main.o
                0x0000052c                readMode
 .text.writeMode
                0x00000532        0x8 ./main.o
                0x00000532                writeMode
 .text.power    0x0000053a       0x5c ./main.o
                0x0000053a                power
 .text.strlen   0x00000596       0x12 ./main.o
                0x00000596                strlen
 .text.delay_ms
                0x000005a8       0x18 ./main.o
                0x000005a8                delay_ms
 .text.WriteByte
                0x000005c0       0x9c ./main.o
                0x000005c0                WriteByte
 .text.WriteCmd
                0x0000065c        0x4 ./main.o
                0x0000065c                WriteCmd
 .text.WriteData
                0x00000660        0x4 ./main.o
                0x00000660                WriteData
 .text.LCDinit  0x00000664       0x36 ./main.o
                0x00000664                LCDinit
 .text.LCDFirstLine
                0x0000069a       0x12 ./main.o
                0x0000069a                LCDFirstLine
 .text.LCDLastLine
                0x000006ac       0x14 ./main.o
                0x000006ac                LCDLastLine
 .text.LCDClrScr
                0x000006c0       0x12 ./main.o
                0x000006c0                LCDClrScr
 .text.LCDPrint
                0x000006d2       0x16 ./main.o
                0x000006d2                LCDPrint
 .text.LCDReturnHome
                0x000006e8       0x12 ./main.o
                0x000006e8                LCDReturnHome
 .text.LCDClearCurrLine
                0x000006fa       0x18 ./main.o
                0x000006fa                LCDClearCurrLine
 .text.LCDCursorShift
                0x00000712       0x32 ./main.o
                0x00000712                LCDCursorShift
 .text.printMenuEx
                0x00000744       0xa2 ./main.o
                0x00000744                printMenuEx
 .text.printMenu
                0x000007e6        0x6 ./main.o
                0x000007e6                printMenu
 .text.ReadButtonFromPORTB
                0x000007ec       0x60 ./main.o
                0x000007ec                ReadButtonFromPORTB
 .text.ReadButtonFromPORTC
                0x0000084c       0x60 ./main.o
                0x0000084c                ReadButtonFromPORTC
 .text.ReadBtnTop
                0x000008ac        0x6 ./main.o
                0x000008ac                ReadBtnTop
 .text.ReadBtnLeft
                0x000008b2        0x6 ./main.o
                0x000008b2                ReadBtnLeft
 .text.ReadBtnBottom
                0x000008b8        0x6 ./main.o
                0x000008b8                ReadBtnBottom
 .text.ReadBtnRight
                0x000008be        0x6 ./main.o
                0x000008be                ReadBtnRight
 .text.ReadBtnSelect
                0x000008c4        0x6 ./main.o
                0x000008c4                ReadBtnSelect
 .text.selectFromList
                0x000008ca       0x8c ./main.o
                0x000008ca                selectFromList
 .text.msgBox   0x00000956       0x92 ./main.o
                0x00000956                msgBox
 .text.getNumber
                0x000009e8      0x278 ./main.o
                0x000009e8                getNumber
 .text.setRelayState
                0x00000c60       0x30 ./main.o
                0x00000c60                setRelayState
 .text.usbFunctionRead
                0x00000c90       0x7a ./main.o
                0x00000c90                usbFunctionRead
 .text.usbFunctionWrite
                0x00000d0a       0x7e ./main.o
                0x00000d0a                usbFunctionWrite
 .text.usbFunctionSetup
                0x00000d88       0x24 ./main.o
                0x00000d88                usbFunctionSetup
 .text.initIO   0x00000dac       0x14 ./main.o
                0x00000dac                initIO
 .text.startup.main
                0x00000dc0      0x29a ./main.o
                0x00000dc0                main
 .text.libgcc.mul
                0x0000105a        0x0 /usr/lib/gcc/avr/4.8.1/avr4/libgcc.a(_exit.o)
 .text.libgcc.div
                0x0000105a        0x0 /usr/lib/gcc/avr/4.8.1/avr4/libgcc.a(_exit.o)
 .text.libgcc   0x0000105a        0x0 /usr/lib/gcc/avr/4.8.1/avr4/libgcc.a(_exit.o)
 .text.libgcc.prologue
                0x0000105a        0x0 /usr/lib/gcc/avr/4.8.1/avr4/libgcc.a(_exit.o)
 .text.libgcc.builtins
                0x0000105a        0x0 /usr/lib/gcc/avr/4.8.1/avr4/libgcc.a(_exit.o)
 .text.libgcc.fmul
                0x0000105a        0x0 /usr/lib/gcc/avr/4.8.1/avr4/libgcc.a(_exit.o)
 .text.libgcc.fixed
                0x0000105a        0x0 /usr/lib/gcc/avr/4.8.1/avr4/libgcc.a(_exit.o)
 .text.libgcc.mul
                0x0000105a        0x0 /usr/lib/gcc/avr/4.8.1/avr4/libgcc.a(_copy_data.o)
 .text.libgcc.div
                0x0000105a        0x0 /usr/lib/gcc/avr/4.8.1/avr4/libgcc.a(_copy_data.o)
 .text.libgcc   0x0000105a        0x0 /usr/lib/gcc/avr/4.8.1/avr4/libgcc.a(_copy_data.o)
 .text.libgcc.prologue
                0x0000105a        0x0 /usr/lib/gcc/avr/4.8.1/avr4/libgcc.a(_copy_data.o)
 .text.libgcc.builtins
                0x0000105a        0x0 /usr/lib/gcc/avr/4.8.1/avr4/libgcc.a(_copy_data.o)
 .text.libgcc.fmul
                0x0000105a        0x0 /usr/lib/gcc/avr/4.8.1/avr4/libgcc.a(_copy_data.o)
 .text.libgcc.fixed
                0x0000105a        0x0 /usr/lib/gcc/avr/4.8.1/avr4/libgcc.a(_copy_data.o)
 .text.libgcc.mul
                0x0000105a        0x0 /usr/lib/gcc/avr/4.8.1/avr4/libgcc.a(_clear_bss.o)
 .text.libgcc.div
                0x0000105a        0x0 /usr/lib/gcc/avr/4.8.1/avr4/libgcc.a(_clear_bss.o)
 .text.libgcc   0x0000105a        0x0 /usr/lib/gcc/avr/4.8.1/avr4/libgcc.a(_clear_bss.o)
 .text.libgcc.prologue
                0x0000105a        0x0 /usr/lib/gcc/avr/4.8.1/avr4/libgcc.a(_clear_bss.o)
 .text.libgcc.builtins
                0x0000105a        0x0 /usr/lib/gcc/avr/4.8.1/avr4/libgcc.a(_clear_bss.o)
 .text.libgcc.fmul
                0x0000105a        0x0 /usr/lib/gcc/avr/4.8.1/avr4/libgcc.a(_clear_bss.o)
 .text.libgcc.fixed
                0x0000105a        0x0 /usr/lib/gcc/avr/4.8.1/avr4/libgcc.a(_clear_bss.o)
 .text.avr-libc.fplib
                0x0000105a        0x4 /usr/lib/gcc/avr/4.8.1/../../../avr/lib/avr4/libm.a(divsf3.o)
                0x0000105a                __divsf3
 .text.avr-libc.fplib
                0x0000105e       0xcc /usr/lib/gcc/avr/4.8.1/../../../avr/lib/avr4/libm.a(divsf3x.o)
                0x00001074                __divsf3x
                0x00001078                __divsf3_pse
 .text.avr-libc.fplib
                0x0000112a        0xa /usr/lib/gcc/avr/4.8.1/../../../avr/lib/avr4/libm.a(fixsfsi.o)
                0x0000112a                __fixsfsi
 .text.avr-libc.fplib
                0x00001134       0x58 /usr/lib/gcc/avr/4.8.1/../../../avr/lib/avr4/libm.a(fixunssfsi.o)
                0x00001134                __fixunssfsi
 .text.avr-libc.fplib
                0x0000118c       0x7a /usr/lib/gcc/avr/4.8.1/../../../avr/lib/avr4/libm.a(floatsisf.o)
                0x0000118c                __floatunsisf
                0x00001190                __floatsisf
 .text.avr-libc.fplib
                0x00001206        0xc /usr/lib/gcc/avr/4.8.1/../../../avr/lib/avr4/libm.a(fp_inf.o)
                0x00001206                __fp_inf
 .text.avr-libc.fplib
                0x00001212        0x6 /usr/lib/gcc/avr/4.8.1/../../../avr/lib/avr4/libm.a(fp_nan.o)
                0x00001212                __fp_nan
 .text.avr-libc.fplib
                0x00001218        0xe /usr/lib/gcc/avr/4.8.1/../../../avr/lib/avr4/libm.a(fp_pscA.o)
                0x00001218                __fp_pscA
 .text.avr-libc.fplib
                0x00001226        0xe /usr/lib/gcc/avr/4.8.1/../../../avr/lib/avr4/libm.a(fp_pscB.o)
                0x00001226                __fp_pscB
 .text.avr-libc.fplib
                0x00001234       0x22 /usr/lib/gcc/avr/4.8.1/../../../avr/lib/avr4/libm.a(fp_round.o)
                0x00001234                __fp_round
 .text.avr-libc.fplib
                0x00001256       0x44 /usr/lib/gcc/avr/4.8.1/../../../avr/lib/avr4/libm.a(fp_split3.o)
                0x00001256                __fp_split3
                0x00001266                __fp_splitA
 .text.avr-libc.fplib
                0x0000129a        0xe /usr/lib/gcc/avr/4.8.1/../../../avr/lib/avr4/libm.a(fp_zero.o)
                0x0000129a                __fp_zero
                0x0000129c                __fp_szero
 .text.avr-libc.fplib
                0x000012a8       0x40 /usr/lib/gcc/avr/4.8.1/../../../avr/lib/avr4/libm.a(round.o)
                0x000012a8                round
 .text.avr-libc.fplib
                0x000012e8       0x36 /usr/lib/gcc/avr/4.8.1/../../../avr/lib/avr4/libm.a(fp_mintl.o)
                0x000012e8                __fp_mintl
 .text.avr-libc.fplib
                0x0000131e       0x1c /usr/lib/gcc/avr/4.8.1/../../../avr/lib/avr4/libm.a(fp_mpack.o)
                0x0000131e                __fp_mpack
                0x00001322                __fp_mpack_finite
 .text.avr-libc
                0x0000133a       0x14 /usr/lib/gcc/avr/4.8.1/../../../avr/lib/avr4/libc.a(itoa_ncheck.o)
                0x0000133a                __itoa_ncheck
 .text.avr-libc
                0x0000134e       0x32 /usr/lib/gcc/avr/4.8.1/../../../avr/lib/avr4/libc.a(utoa_ncheck.o)
                0x0000134e                __utoa_ncheck
                0x00001350                __utoa_common
 .text.avr-libc
                0x00001380        0xa /usr/lib/gcc/avr/4.8.1/../../../avr/lib/avr4/libc.a(eerd_word_atmega8.o)
                0x00001380                __eerd_word_m8
 .text.avr-libc
                0x0000138a        0x6 /usr/lib/gcc/avr/4.8.1/../../../avr/lib/avr4/libc.a(eewr_word_atmega8.o)
                0x0000138a                __eewr_word_m8
 .text.avr-libc
                0x00001390       0x20 /usr/lib/gcc/avr/4.8.1/../../../avr/lib/avr4/libc.a(strrev.o)
                0x00001390                strrev
 .text.avr-libc
                0x000013b0       0x20 /usr/lib/gcc/avr/4.8.1/../../../avr/lib/avr4/libc.a(eerd_block_atmega8.o)
                0x000013b0                __eerd_block_m8
                0x000013b4                __eerd_blraw_m8
 .text.avr-libc
                0x000013d0       0x1a /usr/lib/gcc/avr/4.8.1/../../../avr/lib/avr4/libc.a(eewr_byte_atmega8.o)
                0x000013d0                __eewr_byte_m8
                0x000013d2                __eewr_r18_m8
                0x000013ea                . = ALIGN (0x2)
 *(.fini9)
 .fini9         0x000013ea        0x0 /usr/lib/gcc/avr/4.8.1/avr4/libgcc.a(_exit.o)
                0x000013ea                exit
                0x000013ea                _exit
 *(.fini9)
 *(.fini8)
 *(.fini8)
 *(.fini7)
 *(.fini7)
 *(.fini6)
 *(.fini6)
 *(.fini5)
 *(.fini5)
 *(.fini4)
 *(.fini4)
 *(.fini3)
 *(.fini3)
 *(.fini2)
 *(.fini2)
 *(.fini1)
 *(.fini1)
 *(.fini0)
 .fini0         0x000013ea        0x4 /usr/lib/gcc/avr/4.8.1/avr4/libgcc.a(_exit.o)
 *(.fini0)
                0x000013ee                _etext = .

.data           0x00800060      0x120 load address 0x000013ee
                0x00800060                PROVIDE (__data_start, .)
 *(.data)
 .data          0x00800060        0x0 /usr/lib/gcc/avr/4.8.1/../../../avr/lib/avr4/crtm8.o
 .data          0x00800060        0x2 ./usbdrv.o
                0x00800061                usbTxLen
 .data          0x00800062        0x0 ./usbdrvasm.o
 .data          0x00800062        0x0 ./oddebug.o
 .data          0x00800062        0x0 ./main.o
 .data          0x00800062        0x0 /usr/lib/gcc/avr/4.8.1/avr4/libgcc.a(_exit.o)
 .data          0x00800062        0x0 /usr/lib/gcc/avr/4.8.1/avr4/libgcc.a(_copy_data.o)
 .data          0x00800062        0x0 /usr/lib/gcc/avr/4.8.1/avr4/libgcc.a(_clear_bss.o)
 .data          0x00800062        0x0 /usr/lib/gcc/avr/4.8.1/../../../avr/lib/avr4/libm.a(divsf3.o)
 .data          0x00800062        0x0 /usr/lib/gcc/avr/4.8.1/../../../avr/lib/avr4/libm.a(divsf3x.o)
 .data          0x00800062        0x0 /usr/lib/gcc/avr/4.8.1/../../../avr/lib/avr4/libm.a(fixsfsi.o)
 .data          0x00800062        0x0 /usr/lib/gcc/avr/4.8.1/../../../avr/lib/avr4/libm.a(fixunssfsi.o)
 .data          0x00800062        0x0 /usr/lib/gcc/avr/4.8.1/../../../avr/lib/avr4/libm.a(floatsisf.o)
 .data          0x00800062        0x0 /usr/lib/gcc/avr/4.8.1/../../../avr/lib/avr4/libm.a(fp_inf.o)
 .data          0x00800062        0x0 /usr/lib/gcc/avr/4.8.1/../../../avr/lib/avr4/libm.a(fp_nan.o)
 .data          0x00800062        0x0 /usr/lib/gcc/avr/4.8.1/../../../avr/lib/avr4/libm.a(fp_pscA.o)
 .data          0x00800062        0x0 /usr/lib/gcc/avr/4.8.1/../../../avr/lib/avr4/libm.a(fp_pscB.o)
 .data          0x00800062        0x0 /usr/lib/gcc/avr/4.8.1/../../../avr/lib/avr4/libm.a(fp_round.o)
 .data          0x00800062        0x0 /usr/lib/gcc/avr/4.8.1/../../../avr/lib/avr4/libm.a(fp_split3.o)
 .data          0x00800062        0x0 /usr/lib/gcc/avr/4.8.1/../../../avr/lib/avr4/libm.a(fp_zero.o)
 .data          0x00800062        0x0 /usr/lib/gcc/avr/4.8.1/../../../avr/lib/avr4/libm.a(round.o)
 .data          0x00800062        0x0 /usr/lib/gcc/avr/4.8.1/../../../avr/lib/avr4/libm.a(fp_mintl.o)
 .data          0x00800062        0x0 /usr/lib/gcc/avr/4.8.1/../../../avr/lib/avr4/libm.a(fp_mpack.o)
 .data          0x00800062        0x0 /usr/lib/gcc/avr/4.8.1/../../../avr/lib/avr4/libc.a(itoa_ncheck.o)
 .data          0x00800062        0x0 /usr/lib/gcc/avr/4.8.1/../../../avr/lib/avr4/libc.a(utoa_ncheck.o)
 .data          0x00800062        0x0 /usr/lib/gcc/avr/4.8.1/../../../avr/lib/avr4/libc.a(eerd_word_atmega8.o)
 .data          0x00800062        0x0 /usr/lib/gcc/avr/4.8.1/../../../avr/lib/avr4/libc.a(eewr_word_atmega8.o)
 .data          0x00800062        0x0 /usr/lib/gcc/avr/4.8.1/../../../avr/lib/avr4/libc.a(strrev.o)
 .data          0x00800062        0x0 /usr/lib/gcc/avr/4.8.1/../../../avr/lib/avr4/libc.a(eerd_block_atmega8.o)
 .data          0x00800062        0x0 /usr/lib/gcc/avr/4.8.1/../../../avr/lib/avr4/libc.a(eewr_byte_atmega8.o)
 *(.data*)
 .data.listOfModes
                0x00800062       0x40 ./main.o
                0x00800062                listOfModes
 .data.usbHidReportDescriptor
                0x008000a2       0x16 ./main.o
                0x008000a2                usbHidReportDescriptor
 .data.main_menu
                0x008000b8       0x70 ./main.o
                0x008000b8                main_menu
 *(.rodata)
 *(.rodata*)
 .rodata.str1.1
                0x00800128       0x58 ./main.o
                                 0x61 (size before relaxing)
 *(.gnu.linkonce.d*)
                0x00800180                . = ALIGN (0x2)
                0x00800180                _edata = .
                0x00800180                PROVIDE (__data_end, .)

.bss            0x00800180       0x3b
                0x00800180                PROVIDE (__bss_start, .)
 *(.bss)
 .bss           0x00800180        0x0 /usr/lib/gcc/avr/4.8.1/../../../avr/lib/avr4/crtm8.o
 .bss           0x00800180        0x1 ./usbdrv.o
 .bss           0x00800181        0x0 ./usbdrvasm.o
 .bss           0x00800181        0x0 ./oddebug.o
 .bss           0x00800181        0x0 ./main.o
 .bss           0x00800181        0x0 /usr/lib/gcc/avr/4.8.1/avr4/libgcc.a(_exit.o)
 .bss           0x00800181        0x0 /usr/lib/gcc/avr/4.8.1/avr4/libgcc.a(_copy_data.o)
 .bss           0x00800181        0x0 /usr/lib/gcc/avr/4.8.1/avr4/libgcc.a(_clear_bss.o)
 .bss           0x00800181        0x0 /usr/lib/gcc/avr/4.8.1/../../../avr/lib/avr4/libm.a(divsf3.o)
 .bss           0x00800181        0x0 /usr/lib/gcc/avr/4.8.1/../../../avr/lib/avr4/libm.a(divsf3x.o)
 .bss           0x00800181        0x0 /usr/lib/gcc/avr/4.8.1/../../../avr/lib/avr4/libm.a(fixsfsi.o)
 .bss           0x00800181        0x0 /usr/lib/gcc/avr/4.8.1/../../../avr/lib/avr4/libm.a(fixunssfsi.o)
 .bss           0x00800181        0x0 /usr/lib/gcc/avr/4.8.1/../../../avr/lib/avr4/libm.a(floatsisf.o)
 .bss           0x00800181        0x0 /usr/lib/gcc/avr/4.8.1/../../../avr/lib/avr4/libm.a(fp_inf.o)
 .bss           0x00800181        0x0 /usr/lib/gcc/avr/4.8.1/../../../avr/lib/avr4/libm.a(fp_nan.o)
 .bss           0x00800181        0x0 /usr/lib/gcc/avr/4.8.1/../../../avr/lib/avr4/libm.a(fp_pscA.o)
 .bss           0x00800181        0x0 /usr/lib/gcc/avr/4.8.1/../../../avr/lib/avr4/libm.a(fp_pscB.o)
 .bss           0x00800181        0x0 /usr/lib/gcc/avr/4.8.1/../../../avr/lib/avr4/libm.a(fp_round.o)
 .bss           0x00800181        0x0 /usr/lib/gcc/avr/4.8.1/../../../avr/lib/avr4/libm.a(fp_split3.o)
 .bss           0x00800181        0x0 /usr/lib/gcc/avr/4.8.1/../../../avr/lib/avr4/libm.a(fp_zero.o)
 .bss           0x00800181        0x0 /usr/lib/gcc/avr/4.8.1/../../../avr/lib/avr4/libm.a(round.o)
 .bss           0x00800181        0x0 /usr/lib/gcc/avr/4.8.1/../../../avr/lib/avr4/libm.a(fp_mintl.o)
 .bss           0x00800181        0x0 /usr/lib/gcc/avr/4.8.1/../../../avr/lib/avr4/libm.a(fp_mpack.o)
 .bss           0x00800181        0x0 /usr/lib/gcc/avr/4.8.1/../../../avr/lib/avr4/libc.a(itoa_ncheck.o)
 .bss           0x00800181        0x0 /usr/lib/gcc/avr/4.8.1/../../../avr/lib/avr4/libc.a(utoa_ncheck.o)
 .bss           0x00800181        0x0 /usr/lib/gcc/avr/4.8.1/../../../avr/lib/avr4/libc.a(eerd_word_atmega8.o)
 .bss           0x00800181        0x0 /usr/lib/gcc/avr/4.8.1/../../../avr/lib/avr4/libc.a(eewr_word_atmega8.o)
 .bss           0x00800181        0x0 /usr/lib/gcc/avr/4.8.1/../../../avr/lib/avr4/libc.a(strrev.o)
 .bss           0x00800181        0x0 /usr/lib/gcc/avr/4.8.1/../../../avr/lib/avr4/libc.a(eerd_block_atmega8.o)
 .bss           0x00800181        0x0 /usr/lib/gcc/avr/4.8.1/../../../avr/lib/avr4/libc.a(eewr_byte_atmega8.o)
 *(.bss*)
 .bss.bytesRemaining
                0x00800181        0x1 ./main.o
 .bss.currentAddress
                0x00800182        0x1 ./main.o
 .bss.pdata     0x00800183        0x3 ./main.o
                0x00800183                pdata
 .bss.menu_duration
                0x00800186        0x1 ./main.o
                0x00800186                menu_duration
 .bss.main_menu_index
                0x00800187        0x1 ./main.o
                0x00800187                main_menu_index
 .bss.menustate
                0x00800188        0x1 ./main.o
                0x00800188                menustate
 *(COMMON)
 COMMON         0x00800189       0x2a ./usbdrv.o
                0x00800189                usbTxBuf
                0x00800194                usbDeviceAddr
                0x00800195                usbRxToken
                0x00800196                usbInputBufOffset
                0x00800197                usbMsgPtr
                0x00800199                usbRxLen
                0x0080019a                usbNewDeviceAddr
                0x0080019b                usbCurrentTok
                0x0080019c                usbConfiguration
                0x0080019d                usbRxBuf
 COMMON         0x008001b3        0x8 ./main.o
                0x008001b3                def_impulse_count
                0x008001b5                def_mode
                0x008001b7                def_pause_duration
                0x008001b9                def_pulse_duration
                0x008001bb                PROVIDE (__bss_end, .)
                0x000013ee                __data_load_start = LOADADDR (.data)
                0x0000150e                __data_load_end = (__data_load_start + SIZEOF (.data))

.noinit         0x008001bb        0x0
                0x008001bb                PROVIDE (__noinit_start, .)
 *(.noinit*)
                0x008001bb                PROVIDE (__noinit_end, .)
                0x008001bb                _end = .
                0x008001bb                PROVIDE (__heap_start, .)

.eeprom         0x00810000        0x8
 *(.eeprom*)
 .eeprom        0x00810000        0x8 ./main.o
                0x00810000                eeprom_mode
                0x00810002                eeprom_impulse_count
                0x00810004                eeprom_pause_duration
                0x00810006                eeprom_pulse_duration
                0x00810008                __eeprom_end = .

.fuse
 *(.fuse)
 *(.lfuse)
 *(.hfuse)
 *(.efuse)

.lock
 *(.lock*)

.signature
 *(.signature*)

.user_signatures
 *(.user_signatures*)

.stab
 *(.stab)

.stabstr
 *(.stabstr)

.stab.excl
 *(.stab.excl)

.stab.exclstr
 *(.stab.exclstr)

.stab.index
 *(.stab.index)

.stab.indexstr
 *(.stab.indexstr)

.comment        0x00000000       0x11
 *(.comment)
 .comment       0x00000000       0x11 ./usbdrv.o
                                 0x12 (size before relaxing)
 .comment       0x00000000       0x12 ./oddebug.o
 .comment       0x00000000       0x12 ./main.o

.note.gnu.build-id
 *(.note.gnu.build-id)

.debug
 *(.debug)

.line
 *(.line)

.debug_srcinfo
 *(.debug_srcinfo)

.debug_sfnames
 *(.debug_sfnames)

.debug_aranges
 *(.debug_aranges)

.debug_pubnames
 *(.debug_pubnames)

.debug_info
 *(.debug_info .gnu.linkonce.wi.*)

.debug_abbrev
 *(.debug_abbrev)

.debug_line
 *(.debug_line .debug_line.* .debug_line_end)

.debug_frame
 *(.debug_frame)

.debug_str
 *(.debug_str)

.debug_loc
 *(.debug_loc)

.debug_macinfo
 *(.debug_macinfo)

.debug_weaknames
 *(.debug_weaknames)

.debug_funcnames
 *(.debug_funcnames)

.debug_typenames
 *(.debug_typenames)

.debug_varnames
 *(.debug_varnames)

.debug_pubtypes
 *(.debug_pubtypes)

.debug_ranges
 *(.debug_ranges)

.debug_macro
 *(.debug_macro)
OUTPUT(main.elf elf32-avr)
LOAD linker stubs
